target datalayout = "e-m:e-p270:32:32-p271:32:32-p272:64:64-i64:64-i128:128-f80:128-n8:16:32:64-S128"
target triple = "x86_64-pc-linux-gnu"

%"class.std::__cxx11::basic_string" = type { %"struct.std::__cxx11::basic_string<char>::_Alloc_hider", i64, %union.anon }
%"struct.std::__cxx11::basic_string<char>::_Alloc_hider" = type { ptr }
%union.anon = type { i64, [8 x i8] }
%"class.pxrInternal_v0_24__pxrReserved__::UsdValidationRegistry" = type { %"class.std::unordered_map", %"class.std::unordered_map.2", %"class.std::unordered_map.16", %"class.std::unordered_map.30", %"class.std::unordered_map.30", %"class.std::unordered_map.30", %"class.std::shared_mutex" }
%"class.std::unordered_map" = type { %"class.std::_Hashtable" }
%"class.std::_Hashtable" = type { ptr, i64, %"struct.std::__detail::_Hash_node_base", i64, %"struct.std::__detail::_Prime_rehash_policy", ptr }
%"struct.std::__detail::_Hash_node_base" = type { ptr }
%"struct.std::__detail::_Prime_rehash_policy" = type { float, i64 }
%"class.std::unordered_map.2" = type { %"class.std::_Hashtable.3" }
%"class.std::_Hashtable.3" = type { ptr, i64, %"struct.std::__detail::_Hash_node_base", i64, %"struct.std::__detail::_Prime_rehash_policy", ptr }
%"class.std::unordered_map.16" = type { %"class.std::_Hashtable.17" }
%"class.std::_Hashtable.17" = type { ptr, i64, %"struct.std::__detail::_Hash_node_base", i64, %"struct.std::__detail::_Prime_rehash_policy", ptr }
%"class.std::unordered_map.30" = type { %"class.std::_Hashtable.31" }
%"class.std::_Hashtable.31" = type { ptr, i64, %"struct.std::__detail::_Hash_node_base", i64, %"struct.std::__detail::_Prime_rehash_policy", ptr }
%"class.std::shared_mutex" = type { %"class.std::__shared_mutex_pthread" }
%"class.std::__shared_mutex_pthread" = type { %union.pthread_rwlock_t }
%union.pthread_rwlock_t = type { %struct.__pthread_rwlock_arch_t }
%struct.__pthread_rwlock_arch_t = type { i32, i32, i32, i32, i32, i32, i32, i32, i8, [7 x i8], i64, i32 }
%"class.std::vector.76" = type { %"struct.std::_Vector_base.77" }
%"struct.std::_Vector_base.77" = type { %"struct.std::_Vector_base<pxrInternal_v0_24__pxrReserved__::TfToken, std::allocator<pxrInternal_v0_24__pxrReserved__::TfToken>>::_Vector_impl" }
%"struct.std::_Vector_base<pxrInternal_v0_24__pxrReserved__::TfToken, std::allocator<pxrInternal_v0_24__pxrReserved__::TfToken>>::_Vector_impl" = type { %"struct.std::_Vector_base<pxrInternal_v0_24__pxrReserved__::TfToken, std::allocator<pxrInternal_v0_24__pxrReserved__::TfToken>>::_Vector_impl_data" }
%"struct.std::_Vector_base<pxrInternal_v0_24__pxrReserved__::TfToken, std::allocator<pxrInternal_v0_24__pxrReserved__::TfToken>>::_Vector_impl_data" = type { ptr, ptr, ptr }
%"class.pxrInternal_v0_24__pxrReserved__::TfToken" = type { %"class.pxrInternal_v0_24__pxrReserved__::TfPointerAndBits" }
%"class.pxrInternal_v0_24__pxrReserved__::TfPointerAndBits" = type { ptr }
%"struct.pxrInternal_v0_24__pxrReserved__::UsdValidatorMetadata" = type <{ %"class.pxrInternal_v0_24__pxrReserved__::TfToken", %"class.pxrInternal_v0_24__pxrReserved__::TfWeakPtr", %"class.std::vector.76", %"class.std::__cxx11::basic_string", %"class.std::vector.76", i8, [7 x i8] }>
%"class.pxrInternal_v0_24__pxrReserved__::TfWeakPtr" = type { ptr, %"class.pxrInternal_v0_24__pxrReserved__::TfRefPtr" }
%"class.pxrInternal_v0_24__pxrReserved__::TfRefPtr" = type { ptr }
%class.anon.142 = type { ptr, ptr }
%"struct.std::__detail::_Node_iterator_base.130" = type { ptr }
%"struct.std::pair.196" = type <{ %"struct.std::__detail::_Node_iterator.198", i8, [7 x i8] }>
%"struct.std::__detail::_Node_iterator.198" = type { %"struct.std::__detail::_Node_iterator_base.130" }

; Function Attrs: mustprogress uwtable
define linkonce_odr { ptr, i8 } @_ZNSt10_HashtableIN32pxrInternal_v0_24__pxrReserved__7TfTokenESt4pairIKS1_NS0_20UsdValidatorMetadataEESaIS5_ENSt8__detail10_Select1stESt8equal_toIS1_ENS1_11HashFunctorENS7_18_Mod_range_hashingENS7_20_Default_ranged_hashENS7_20_Prime_rehash_policyENS7_17_Hashtable_traitsILb1ELb0ELb1EEEE7emplaceIJRS3_RKS4_EEES2_INS7_14_Node_iteratorIS5_Lb0ELb1EEEbEDpOT_(ptr noundef nonnull align 8 dereferenceable(56) %0, ptr noundef nonnull align 8 dereferenceable(8) %1, ptr noundef nonnull align 8 dereferenceable(105) %2) #0 comdat align 2 {
  %4 = alloca %"struct.std::pair.196", align 8
  %5 = alloca ptr, align 8
  %6 = alloca ptr, align 8
  %7 = alloca ptr, align 8
  %8 = alloca { ptr, i8 }, align 8
  store ptr %0, ptr %5, align 8
  store ptr %1, ptr %6, align 8
  store ptr %2, ptr %7, align 8
  %9 = load ptr, ptr %5, align 8
  %10 = load ptr, ptr %6, align 8
  %11 = load ptr, ptr %7, align 8
  %12 = call { ptr, i8 } @_ZNSt10_HashtableIN32pxrInternal_v0_24__pxrReserved__7TfTokenESt4pairIKS1_NS0_20UsdValidatorMetadataEESaIS5_ENSt8__detail10_Select1stESt8equal_toIS1_ENS1_11HashFunctorENS7_18_Mod_range_hashingENS7_20_Default_ranged_hashENS7_20_Prime_rehash_policyENS7_17_Hashtable_traitsILb1ELb0ELb1EEEE10_M_emplaceIJRS3_RKS4_EEES2_INS7_14_Node_iteratorIS5_Lb0ELb1EEEbESt17integral_constantIbLb1EEDpOT_(ptr noundef nonnull align 8 dereferenceable(56) %9, ptr noundef nonnull align 8 dereferenceable(8) %10, ptr noundef nonnull align 8 dereferenceable(105) %11)
  store { ptr, i8 } %12, ptr %8, align 8
  call void @llvm.memcpy.p0.p0.i64(ptr align 8 %4, ptr align 8 %8, i64 9, i1 false)
  %13 = load { ptr, i8 }, ptr %4, align 8
  ret { ptr, i8 } %13
}

; Function Attrs: mustprogress uwtable
define linkonce_odr { ptr, i8 } @_ZNSt13unordered_mapIN32pxrInternal_v0_24__pxrReserved__7TfTokenENS0_20UsdValidatorMetadataENS1_11HashFunctorESt8equal_toIS1_ESaISt4pairIKS1_S2_EEE7emplaceIJRS7_RKS2_EEES6_INSt8__detail14_Node_iteratorIS8_Lb0ELb1EEEbEDpOT_(ptr noundef nonnull align 8 dereferenceable(56) %0, ptr noundef nonnull align 8 dereferenceable(8) %1, ptr noundef nonnull align 8 dereferenceable(105) %2) #0 comdat align 2 {
  %4 = alloca %"struct.std::pair.196", align 8
  %5 = alloca ptr, align 8
  %6 = alloca ptr, align 8
  %7 = alloca ptr, align 8
  %8 = alloca { ptr, i8 }, align 8
  store ptr %0, ptr %5, align 8
  store ptr %1, ptr %6, align 8
  store ptr %2, ptr %7, align 8
  %9 = load ptr, ptr %5, align 8
  %10 = getelementptr inbounds nuw %"class.std::unordered_map.16", ptr %9, i32 0, i32 0
  %11 = load ptr, ptr %6, align 8
  %12 = load ptr, ptr %7, align 8
  %13 = call { ptr, i8 } @_ZNSt10_HashtableIN32pxrInternal_v0_24__pxrReserved__7TfTokenESt4pairIKS1_NS0_20UsdValidatorMetadataEESaIS5_ENSt8__detail10_Select1stESt8equal_toIS1_ENS1_11HashFunctorENS7_18_Mod_range_hashingENS7_20_Default_ranged_hashENS7_20_Prime_rehash_policyENS7_17_Hashtable_traitsILb1ELb0ELb1EEEE7emplaceIJRS3_RKS4_EEES2_INS7_14_Node_iteratorIS5_Lb0ELb1EEEbEDpOT_(ptr noundef nonnull align 8 dereferenceable(56) %10, ptr noundef nonnull align 8 dereferenceable(8) %11, ptr noundef nonnull align 8 dereferenceable(105) %12)
  store { ptr, i8 } %13, ptr %8, align 8
  call void @llvm.memcpy.p0.p0.i64(ptr align 8 %4, ptr align 8 %8, i64 9, i1 false)
  %14 = load { ptr, i8 }, ptr %4, align 8
  ret { ptr, i8 } %14
}

; Function Attrs: mustprogress uwtable
define internal noundef zeroext i1 @"_ZZN32pxrInternal_v0_24__pxrReserved__21UsdValidationRegistry21_AddValidatorMetadataERKNS_20UsdValidatorMetadataEENK3$_0clEv"(ptr noundef nonnull align 8 dereferenceable(16) %0) #0 align 2 {
  %2 = alloca ptr, align 8
  %3 = alloca %"struct.std::pair.196", align 8
  %4 = alloca { ptr, i8 }, align 8
  store ptr %0, ptr %2, align 8
  %5 = load ptr, ptr %2, align 8
  %6 = getelementptr inbounds nuw %class.anon.142, ptr %5, i32 0, i32 0
  %7 = load ptr, ptr %6, align 8
  %8 = getelementptr inbounds nuw %"class.pxrInternal_v0_24__pxrReserved__::UsdValidationRegistry", ptr %7, i32 0, i32 2
  %9 = getelementptr inbounds nuw %class.anon.142, ptr %5, i32 0, i32 1
  %10 = load ptr, ptr %9, align 8
  %11 = getelementptr inbounds nuw %"struct.pxrInternal_v0_24__pxrReserved__::UsdValidatorMetadata", ptr %10, i32 0, i32 0
  %12 = getelementptr inbounds nuw %class.anon.142, ptr %5, i32 0, i32 1
  %13 = load ptr, ptr %12, align 8
  %14 = call { ptr, i8 } @_ZNSt13unordered_mapIN32pxrInternal_v0_24__pxrReserved__7TfTokenENS0_20UsdValidatorMetadataENS1_11HashFunctorESt8equal_toIS1_ESaISt4pairIKS1_S2_EEE7emplaceIJRS7_RKS2_EEES6_INSt8__detail14_Node_iteratorIS8_Lb0ELb1EEEbEDpOT_(ptr noundef nonnull align 8 dereferenceable(56) %8, ptr noundef nonnull align 8 dereferenceable(8) %11, ptr noundef nonnull align 8 dereferenceable(105) %13)
  store { ptr, i8 } %14, ptr %4, align 8
  call void @llvm.memcpy.p0.p0.i64(ptr align 8 %3, ptr align 8 %4, i64 9, i1 false)
  %15 = getelementptr inbounds nuw %"struct.std::pair.196", ptr %3, i32 0, i32 1
  %16 = load i8, ptr %15, align 8
  %17 = trunc i8 %16 to i1
  ret i1 %17
}

; Function Attrs: mustprogress uwtable
define noundef zeroext i1 @_ZN32pxrInternal_v0_24__pxrReserved__21UsdValidationRegistry21_AddValidatorMetadataERKNS_20UsdValidatorMetadataE(ptr noundef nonnull align 8 dereferenceable(392) %0, ptr noundef nonnull align 8 dereferenceable(105) %1) #0 align 2 {
  %3 = alloca ptr, align 8
  %4 = alloca ptr, align 8
  %5 = alloca i8, align 1
  %6 = alloca %class.anon.142, align 8
  store ptr %0, ptr %3, align 8
  store ptr %1, ptr %4, align 8
  %7 = load ptr, ptr %3, align 8
  %8 = getelementptr inbounds nuw %class.anon.142, ptr %6, i32 0, i32 0
  store ptr %7, ptr %8, align 8
  %9 = getelementptr inbounds nuw %class.anon.142, ptr %6, i32 0, i32 1
  %10 = load ptr, ptr %4, align 8
  store ptr %10, ptr %9, align 8
  %11 = call noundef zeroext i1 @"_ZZN32pxrInternal_v0_24__pxrReserved__21UsdValidationRegistry21_AddValidatorMetadataERKNS_20UsdValidatorMetadataEENK3$_0clEv"(ptr noundef nonnull align 8 dereferenceable(16) %6)
  %12 = zext i1 %11 to i8
  store i8 %12, ptr %5, align 1
  %13 = load i8, ptr %5, align 1
  %14 = trunc i8 %13 to i1
  br i1 %14, label %15, label %26

15:                                               ; preds = %2
  %16 = getelementptr inbounds nuw %"class.pxrInternal_v0_24__pxrReserved__::UsdValidationRegistry", ptr %7, i32 0, i32 4
  %17 = load ptr, ptr %4, align 8
  %18 = getelementptr inbounds nuw %"struct.pxrInternal_v0_24__pxrReserved__::UsdValidatorMetadata", ptr %17, i32 0, i32 0
  %19 = load ptr, ptr %4, align 8
  %20 = getelementptr inbounds nuw %"struct.pxrInternal_v0_24__pxrReserved__::UsdValidatorMetadata", ptr %19, i32 0, i32 4
  call void @_ZN32pxrInternal_v0_24__pxrReserved__21UsdValidationRegistry29_UpdateValidatorNamesMappingsERSt13unordered_mapINS_7TfTokenESt6vectorIS2_SaIS2_EENS2_11HashFunctorESt8equal_toIS2_ESaISt4pairIKS2_S5_EEERSA_RKS5_(ptr noundef nonnull align 8 dereferenceable(56) %16, ptr noundef nonnull align 8 dereferenceable(8) %18, ptr noundef nonnull align 8 dereferenceable(24) %20)
  %21 = getelementptr inbounds nuw %"class.pxrInternal_v0_24__pxrReserved__::UsdValidationRegistry", ptr %7, i32 0, i32 3
  %22 = load ptr, ptr %4, align 8
  %23 = getelementptr inbounds nuw %"struct.pxrInternal_v0_24__pxrReserved__::UsdValidatorMetadata", ptr %22, i32 0, i32 0
  %24 = load ptr, ptr %4, align 8
  %25 = getelementptr inbounds nuw %"struct.pxrInternal_v0_24__pxrReserved__::UsdValidatorMetadata", ptr %24, i32 0, i32 2
  call void @_ZN32pxrInternal_v0_24__pxrReserved__21UsdValidationRegistry29_UpdateValidatorNamesMappingsERSt13unordered_mapINS_7TfTokenESt6vectorIS2_SaIS2_EENS2_11HashFunctorESt8equal_toIS2_ESaISt4pairIKS2_S5_EEERSA_RKS5_(ptr noundef nonnull align 8 dereferenceable(56) %21, ptr noundef nonnull align 8 dereferenceable(8) %23, ptr noundef nonnull align 8 dereferenceable(24) %25)
  br label %26

26:                                               ; preds = %15, %2
  %27 = load i8, ptr %5, align 1
  %28 = trunc i8 %27 to i1
  ret i1 %28
}