; Function Attrs: mustprogress uwtable
define noundef zeroext i1 @_ZN32pxrInternal_v0_24__pxrReserved__21UsdValidationRegistry21_AddValidatorMetadataERKNS_20UsdValidatorMetadataE(ptr noundef nonnull align 8 dereferenceable(392) %0, ptr noundef nonnull align 8 dereferenceable(105) %1) local_unnamed_addr #0 align 2 {
  %3 = getelementptr inbounds nuw i8, ptr %0, i64 112
  %4 = tail call { ptr, i8 } @_ZNSt10_HashtableIN32pxrInternal_v0_24__pxrReserved__7TfTokenESt4pairIKS1_NS0_20UsdValidatorMetadataEESaIS5_ENSt8__detail10_Select1stESt8equal_toIS1_ENS1_11HashFunctorENS7_18_Mod_range_hashingENS7_20_Default_ranged_hashENS7_20_Prime_rehash_policyENS7_17_Hashtable_traitsILb1ELb0ELb1EEEE10_M_emplaceIJRS3_RKS4_EEES2_INS7_14_Node_iteratorIS5_Lb0ELb1EEEbESt17integral_constantIbLb1EEDpOT_(ptr noundef nonnull align 8 dereferenceable(56) %3, ptr noundef nonnull align 8 dereferenceable(8) %1, ptr noundef nonnull align 8 dereferenceable(105) %1)
  %.fca.1.extract.i = extractvalue { ptr, i8 } %4, 1
  %5 = trunc i8 %.fca.1.extract.i to i1
  br i1 %5, label %6, label %11

6:                                                ; preds = %2
  %7 = getelementptr inbounds nuw i8, ptr %0, i64 224
  %8 = getelementptr inbounds nuw i8, ptr %1, i64 80
  tail call void @_ZN32pxrInternal_v0_24__pxrReserved__21UsdValidationRegistry29_UpdateValidatorNamesMappingsERSt13unordered_mapINS_7TfTokenESt6vectorIS2_SaIS2_EENS2_11HashFunctorESt8equal_toIS2_ESaISt4pairIKS2_S5_EEERSA_RKS5_(ptr noundef nonnull align 8 dereferenceable(56) %7, ptr noundef nonnull align 8 dereferenceable(8) %1, ptr noundef nonnull align 8 dereferenceable(24) %8)
  %9 = getelementptr inbounds nuw i8, ptr %0, i64 168
  %10 = getelementptr inbounds nuw i8, ptr %1, i64 24
  tail call void @_ZN32pxrInternal_v0_24__pxrReserved__21UsdValidationRegistry29_UpdateValidatorNamesMappingsERSt13unordered_mapINS_7TfTokenESt6vectorIS2_SaIS2_EENS2_11HashFunctorESt8equal_toIS2_ESaISt4pairIKS2_S5_EEERSA_RKS5_(ptr noundef nonnull align 8 dereferenceable(56) %9, ptr noundef nonnull align 8 dereferenceable(8) %1, ptr noundef nonnull align 8 dereferenceable(24) %10)
  br label %11

11:                                               ; preds = %6, %2
  ret i1 %5
}